target datalayout = "e-m:e-p270:32:32-p271:32:32-p272:64:64-i64:64-i128:128-f80:128-n8:16:32:64-S128"
target triple = "x86_64-pc-linux-gnu"

%"class.sat::cut" = type { i32, i32, [5 x i32], i64, i64 }

; Function Attrs: mustprogress nounwind uwtable
define linkonce_odr hidden noundef i32 @_ZNK3sat3cutixEj(ptr noundef nonnull align 8 dereferenceable(48) %0, i32 noundef %1) #6 comdat align 2 {
  %3 = alloca ptr, align 8
  %4 = alloca i32, align 4
  store ptr %0, ptr %3, align 8, !tbaa !10
  store i32 %1, ptr %4, align 4, !tbaa !12
  %5 = load ptr, ptr %3, align 8
  %6 = load i32, ptr %4, align 4, !tbaa !12
  %7 = getelementptr inbounds nuw %"class.sat::cut", ptr %5, i32 0, i32 1
  %8 = load i32, ptr %7, align 4, !tbaa !59
  %9 = icmp uge i32 %6, %8
  br i1 %9, label %10, label %11

10:                                               ; preds = %2
  br label %17

11:                                               ; preds = %2
  %12 = getelementptr inbounds nuw %"class.sat::cut", ptr %5, i32 0, i32 2
  %13 = load i32, ptr %4, align 4, !tbaa !12
  %14 = zext i32 %13 to i64
  %15 = getelementptr inbounds nuw [5 x i32], ptr %12, i64 0, i64 %14
  %16 = load i32, ptr %15, align 4, !tbaa !12
  br label %17

17:                                               ; preds = %11, %10
  %18 = phi i32 [ -1, %10 ], [ %16, %11 ]
  ret i32 %18
}

; Function Attrs: mustprogress uwtable
define hidden noundef zeroext i1 @_ZNK3sat3cut6dom_eqERKS0_(ptr noundef nonnull align 8 dereferenceable(48) %0, ptr noundef nonnull align 8 dereferenceable(48) %1) #4 align 2 {
  %3 = alloca i1, align 1
  %4 = alloca ptr, align 8
  %5 = alloca ptr, align 8
  %6 = alloca i32, align 4
  %7 = alloca i32, align 4
  store ptr %0, ptr %4, align 8, !tbaa !10
  store ptr %1, ptr %5, align 8, !tbaa !10
  %8 = load ptr, ptr %4, align 8
  %9 = getelementptr inbounds nuw %"class.sat::cut", ptr %8, i32 0, i32 1
  %10 = load i32, ptr %9, align 4, !tbaa !59
  %11 = load ptr, ptr %5, align 8, !tbaa !10
  %12 = getelementptr inbounds nuw %"class.sat::cut", ptr %11, i32 0, i32 1
  %13 = load i32, ptr %12, align 4, !tbaa !59
  %14 = icmp ne i32 %10, %13
  br i1 %14, label %15, label %16

15:                                               ; preds = %2
  store i1 false, ptr %3, align 1
  br label %38

16:                                               ; preds = %2
  call void @llvm.lifetime.start.p0(i64 4, ptr %6) #3
  store i32 0, ptr %6, align 4, !tbaa !12
  br label %17

17:                                               ; preds = %32, %16
  %18 = load i32, ptr %6, align 4, !tbaa !12
  %19 = getelementptr inbounds nuw %"class.sat::cut", ptr %8, i32 0, i32 1
  %20 = load i32, ptr %19, align 4, !tbaa !59
  %21 = icmp ult i32 %18, %20
  br i1 %21, label %23, label %22

22:                                               ; preds = %17
  store i32 2, ptr %7, align 4
  br label %35

23:                                               ; preds = %17
  %24 = load i32, ptr %6, align 4, !tbaa !12
  %25 = call noundef i32 @_ZNK3sat3cutixEj(ptr noundef nonnull align 8 dereferenceable(48) %8, i32 noundef %24)
  %26 = load ptr, ptr %5, align 8, !tbaa !10
  %27 = load i32, ptr %6, align 4, !tbaa !12
  %28 = call noundef i32 @_ZNK3sat3cutixEj(ptr noundef nonnull align 8 dereferenceable(48) %26, i32 noundef %27)
  %29 = icmp ne i32 %25, %28
  br i1 %29, label %30, label %31

30:                                               ; preds = %23
  store i1 false, ptr %3, align 1
  store i32 1, ptr %7, align 4
  br label %35

31:                                               ; preds = %23
  br label %32

32:                                               ; preds = %31
  %33 = load i32, ptr %6, align 4, !tbaa !12
  %34 = add i32 %33, 1
  store i32 %34, ptr %6, align 4, !tbaa !12
  br label %17, !llvm.loop !72

35:                                               ; preds = %30, %22
  call void @llvm.lifetime.end.p0(i64 4, ptr %6) #3
  %36 = load i32, ptr %7, align 4
  switch i32 %36, label %40 [
    i32 2, label %37
    i32 1, label %38
  ]

37:                                               ; preds = %35
  store i1 true, ptr %3, align 1
  br label %38

38:                                               ; preds = %37, %35, %15
  %39 = load i1, ptr %3, align 1
  ret i1 %39

40:                                               ; preds = %35
  unreachable
}