; Function Attrs: mustprogress nofree norecurse nosync nounwind willreturn memory(argmem: read) uwtable
define hidden noundef zeroext i1 @_ZNK3sat3cut6dom_eqERKS0_(ptr noundef nonnull readonly align 8 captures(none) dereferenceable(48) %0, ptr noundef nonnull readonly align 8 captures(none) dereferenceable(48) %1) local_unnamed_addr #7 align 2 {
  %3 = getelementptr inbounds nuw i8, ptr %0, i64 4
  %4 = load i32, ptr %3, align 4, !tbaa !15
  %5 = getelementptr inbounds nuw i8, ptr %1, i64 4
  %6 = load i32, ptr %5, align 4, !tbaa !15
  %.not = icmp eq i32 %4, %6
  br i1 %.not, label %.preheader, label %.loopexit

.preheader:                                       ; preds = %2
  %7 = icmp eq i32 %4, 0
  br i1 %7, label %.loopexit, label %_ZNK3sat3cutixEj.exit.lr.ph

_ZNK3sat3cutixEj.exit.lr.ph:                      ; preds = %.preheader
  %8 = getelementptr inbounds nuw i8, ptr %0, i64 8
  %9 = getelementptr inbounds nuw i8, ptr %1, i64 8
  %wide.trip.count = zext i32 %4 to i64
  br label %_ZNK3sat3cutixEj.exit

_ZNK3sat3cutixEj.exit:                            ; preds = %_ZNK3sat3cutixEj.exit, %_ZNK3sat3cutixEj.exit.lr.ph
  %indvars.iv = phi i64 [ 0, %_ZNK3sat3cutixEj.exit.lr.ph ], [ %indvars.iv.next, %_ZNK3sat3cutixEj.exit ]
  %10 = getelementptr inbounds nuw [5 x i32], ptr %8, i64 0, i64 %indvars.iv
  %11 = load i32, ptr %10, align 4, !tbaa !16
  %12 = getelementptr inbounds nuw [5 x i32], ptr %9, i64 0, i64 %indvars.iv
  %13 = load i32, ptr %12, align 4, !tbaa !16
  %.not10 = icmp eq i32 %11, %13
  %indvars.iv.next = add nuw nsw i64 %indvars.iv, 1
  %exitcond.not = icmp ne i64 %indvars.iv.next, %wide.trip.count
  %or.cond.not = select i1 %.not10, i1 %exitcond.not, i1 false
  br i1 %or.cond.not, label %_ZNK3sat3cutixEj.exit, label %.loopexit, !llvm.loop !46

.loopexit:                                        ; preds = %_ZNK3sat3cutixEj.exit, %.preheader, %2
  %.09 = phi i1 [ false, %2 ], [ true, %.preheader ], [ %.not10, %_ZNK3sat3cutixEj.exit ]
  ret i1 %.09
}